; Function Attrs: mustprogress uwtable
define hidden noundef zeroext i1 @_ZN4cvc58internal6theory16RelevanceManager19needsCandidateModelEv(ptr noundef nonnull readonly align 8 captures(none) dereferenceable(656) %0) unnamed_addr #4 align 2 {
  %2 = getelementptr inbounds nuw i8, ptr %0, i64 648
  %3 = load ptr, ptr %2, align 8, !tbaa !293
  %.not = icmp eq ptr %3, null
  br i1 %.not, label %6, label %4

4:                                                ; preds = %1
  %5 = tail call noundef zeroext i1 @_ZNK4cvc58internal6theory17DifficultyManager19needsCandidateModelEv(ptr noundef nonnull align 8 dereferenceable(256) %3)
  br label %6

6:                                                ; preds = %1, %4
  %.0 = phi i1 [ %5, %4 ], [ false, %1 ]
  ret i1 %.0
}